target datalayout = "e-m:e-p270:32:32-p271:32:32-p272:64:64-i64:64-i128:128-f80:128-n8:16:32:64-S128"
target triple = "x86_64-pc-linux-gnu"

%"struct.Luau::AstNameTable::Entry" = type { %"struct.Luau::AstName", i32, i32 }
%"struct.Luau::AstName" = type { ptr }
%"class.Luau::AstNameTable" = type { %"class.Luau::DenseHashSet", ptr }
%"class.Luau::DenseHashSet" = type { %"class.Luau::detail::DenseHashTable" }
%"class.Luau::detail::DenseHashTable" = type <{ ptr, i64, i64, %"struct.Luau::AstNameTable::Entry", [8 x i8] }>
%"struct.std::pair" = type <{ %"struct.Luau::AstName", i32, [4 x i8] }>

; Function Attrs: mustprogress nounwind uwtable
define linkonce_odr dso_local void @_ZNSt4pairIN4Luau7AstNameENS0_6Lexeme4TypeEEC2IS1_S3_TnNSt9enable_ifIXaaclsr5_PCCPE18_ConstructiblePairIT_T0_EEclsr5_PCCPE26_ImplicitlyConvertiblePairIS7_S8_EEEbE4typeELb1EEERKS1_RKS3_(ptr noundef nonnull align 8 dereferenceable(12) %0, ptr noundef nonnull align 8 dereferenceable(8) %1, ptr noundef nonnull align 4 dereferenceable(4) %2) unnamed_addr #2 comdat align 2 {
  %4 = alloca ptr, align 8
  %5 = alloca ptr, align 8
  %6 = alloca ptr, align 8
  store ptr %0, ptr %4, align 8, !tbaa !131
  store ptr %1, ptr %5, align 8, !tbaa !57
  store ptr %2, ptr %6, align 8, !tbaa !69
  %7 = load ptr, ptr %4, align 8
  %8 = getelementptr inbounds nuw %"struct.std::pair", ptr %7, i32 0, i32 0
  %9 = load ptr, ptr %5, align 8, !tbaa !57
  call void @llvm.memcpy.p0.p0.i64(ptr align 8 %8, ptr align 8 %9, i64 8, i1 false), !tbaa.struct !62
  %10 = getelementptr inbounds nuw %"struct.std::pair", ptr %7, i32 0, i32 1
  %11 = load ptr, ptr %6, align 8, !tbaa !69
  %12 = load i32, ptr %11, align 4, !tbaa !26
  store i32 %12, ptr %10, align 8, !tbaa !100
  ret void
}

; Function Attrs: mustprogress uwtable
define linkonce_odr dso_local { ptr, i32 } @_ZSt9make_pairIRKN4Luau7AstNameERKNS0_6Lexeme4TypeEESt4pairINSt25__strip_reference_wrapperINSt5decayIT_E4typeEE6__typeENS9_INSA_IT0_E4typeEE6__typeEEOSB_OSG_(ptr noundef nonnull align 8 dereferenceable(8) %0, ptr noundef nonnull align 4 dereferenceable(4) %1) #4 comdat {
  %3 = alloca %"struct.std::pair", align 8
  %4 = alloca ptr, align 8
  %5 = alloca ptr, align 8
  store ptr %0, ptr %4, align 8, !tbaa !57
  store ptr %1, ptr %5, align 8, !tbaa !69
  %6 = load ptr, ptr %4, align 8, !tbaa !57
  %7 = load ptr, ptr %5, align 8, !tbaa !69
  call void @_ZNSt4pairIN4Luau7AstNameENS0_6Lexeme4TypeEEC2IS1_S3_TnNSt9enable_ifIXaaclsr5_PCCPE18_ConstructiblePairIT_T0_EEclsr5_PCCPE26_ImplicitlyConvertiblePairIS7_S8_EEEbE4typeELb1EEERKS1_RKS3_(ptr noundef nonnull align 8 dereferenceable(12) %3, ptr noundef nonnull align 8 dereferenceable(8) %6, ptr noundef nonnull align 4 dereferenceable(4) %7)
  %8 = load { ptr, i32 }, ptr %3, align 8
  ret { ptr, i32 } %8
}

; Function Attrs: mustprogress nounwind uwtable
define linkonce_odr dso_local void @_ZN4Luau7AstNameC2EPKc(ptr noundef nonnull align 8 dereferenceable(8) %0, ptr noundef %1) unnamed_addr #2 comdat align 2 {
  %3 = alloca ptr, align 8
  %4 = alloca ptr, align 8
  store ptr %0, ptr %3, align 8, !tbaa !57
  store ptr %1, ptr %4, align 8, !tbaa !11
  %5 = load ptr, ptr %3, align 8
  %6 = getelementptr inbounds nuw %"struct.Luau::AstName", ptr %5, i32 0, i32 0
  %7 = load ptr, ptr %4, align 8, !tbaa !11
  store ptr %7, ptr %6, align 8, !tbaa !59
  ret void
}

; Function Attrs: mustprogress uwtable
define dso_local { ptr, i32 } @_ZN4Luau12AstNameTable16getOrAddWithTypeEPKcm(ptr noundef nonnull align 8 dereferenceable(56) %0, ptr noundef %1, i64 noundef %2) #4 align 2 {
  %4 = alloca %"struct.std::pair", align 8
  %5 = alloca ptr, align 8
  %6 = alloca ptr, align 8
  %7 = alloca i64, align 8
  %8 = alloca %"struct.Luau::AstNameTable::Entry", align 8
  %9 = alloca ptr, align 8
  %10 = alloca { ptr, i32 }, align 8
  %11 = alloca i32, align 4
  %12 = alloca ptr, align 8
  %13 = alloca %"struct.Luau::AstName", align 8
  %14 = alloca { ptr, i32 }, align 8
  store ptr %0, ptr %5, align 8, !tbaa !51
  store ptr %1, ptr %6, align 8, !tbaa !11
  store i64 %2, ptr %7, align 8, !tbaa !35
  %15 = load ptr, ptr %5, align 8
  call void @llvm.lifetime.start.p0(i64 16, ptr %8) #18
  %16 = getelementptr inbounds nuw %"struct.Luau::AstNameTable::Entry", ptr %8, i32 0, i32 0
  %17 = load ptr, ptr %6, align 8, !tbaa !11
  call void @_ZN4Luau7AstNameC2EPKc(ptr noundef nonnull align 8 dereferenceable(8) %16, ptr noundef %17)
  %18 = getelementptr inbounds nuw %"struct.Luau::AstNameTable::Entry", ptr %8, i32 0, i32 1
  %19 = load i64, ptr %7, align 8, !tbaa !35
  %20 = trunc i64 %19 to i32
  store i32 %20, ptr %18, align 8, !tbaa !43
  %21 = getelementptr inbounds nuw %"struct.Luau::AstNameTable::Entry", ptr %8, i32 0, i32 2
  store i32 0, ptr %21, align 4, !tbaa !55
  call void @llvm.lifetime.start.p0(i64 8, ptr %9) #18
  %22 = getelementptr inbounds nuw %"class.Luau::AstNameTable", ptr %15, i32 0, i32 0
  %23 = call noundef nonnull align 8 dereferenceable(16) ptr @_ZN4Luau12DenseHashSetINS_12AstNameTable5EntryENS1_9EntryHashESt8equal_toIS2_EE6insertERKS2_(ptr noundef nonnull align 8 dereferenceable(48) %22, ptr noundef nonnull align 8 dereferenceable(16) %8)
  store ptr %23, ptr %9, align 8, !tbaa !41
  %24 = load ptr, ptr %9, align 8, !tbaa !41
  %25 = getelementptr inbounds nuw %"struct.Luau::AstNameTable::Entry", ptr %24, i32 0, i32 2
  %26 = load i32, ptr %25, align 4, !tbaa !55
  %27 = icmp ne i32 %26, 0
  br i1 %27, label %28, label %34

28:                                               ; preds = %3
  %29 = load ptr, ptr %9, align 8, !tbaa !41
  %30 = getelementptr inbounds nuw %"struct.Luau::AstNameTable::Entry", ptr %29, i32 0, i32 0
  %31 = load ptr, ptr %9, align 8, !tbaa !41
  %32 = getelementptr inbounds nuw %"struct.Luau::AstNameTable::Entry", ptr %31, i32 0, i32 2
  %33 = call { ptr, i32 } @_ZSt9make_pairIRKN4Luau7AstNameERKNS0_6Lexeme4TypeEESt4pairINSt25__strip_reference_wrapperINSt5decayIT_E4typeEE6__typeENS9_INSA_IT0_E4typeEE6__typeEEOSB_OSG_(ptr noundef nonnull align 8 dereferenceable(8) %30, ptr noundef nonnull align 4 dereferenceable(4) %32)
  store { ptr, i32 } %33, ptr %10, align 8
  call void @llvm.memcpy.p0.p0.i64(ptr align 8 %4, ptr align 8 %10, i64 12, i1 false)
  store i32 1, ptr %11, align 4
  br label %62

34:                                               ; preds = %3
  call void @llvm.lifetime.start.p0(i64 8, ptr %12) #18
  %35 = getelementptr inbounds nuw %"class.Luau::AstNameTable", ptr %15, i32 0, i32 1
  %36 = load ptr, ptr %35, align 8, !tbaa !63
  %37 = load i64, ptr %7, align 8, !tbaa !35
  %38 = add i64 %37, 1
  %39 = call noundef ptr @_ZN4Luau9Allocator8allocateEm(ptr noundef nonnull align 8 dereferenceable(16) %36, i64 noundef %38)
  store ptr %39, ptr %12, align 8, !tbaa !11
  %40 = load ptr, ptr %12, align 8, !tbaa !11
  %41 = load ptr, ptr %6, align 8, !tbaa !11
  %42 = load i64, ptr %7, align 8, !tbaa !35
  call void @llvm.memcpy.p0.p0.i64(ptr align 1 %40, ptr align 1 %41, i64 %42, i1 false)
  %43 = load ptr, ptr %12, align 8, !tbaa !11
  %44 = load i64, ptr %7, align 8, !tbaa !35
  %45 = getelementptr inbounds nuw i8, ptr %43, i64 %44
  store i8 0, ptr %45, align 1, !tbaa !34
  call void @llvm.lifetime.start.p0(i64 8, ptr %13) #18
  %46 = load ptr, ptr %12, align 8, !tbaa !11
  call void @_ZN4Luau7AstNameC2EPKc(ptr noundef nonnull align 8 dereferenceable(8) %13, ptr noundef %46)
  %47 = load ptr, ptr %9, align 8, !tbaa !41
  %48 = getelementptr inbounds nuw %"struct.Luau::AstNameTable::Entry", ptr %47, i32 0, i32 0
  call void @llvm.memcpy.p0.p0.i64(ptr align 8 %48, ptr align 8 %13, i64 8, i1 false), !tbaa.struct !62
  call void @llvm.lifetime.end.p0(i64 8, ptr %13) #18
  %49 = load ptr, ptr %6, align 8, !tbaa !11
  %50 = getelementptr inbounds i8, ptr %49, i64 0
  %51 = load i8, ptr %50, align 1, !tbaa !34
  %52 = sext i8 %51 to i32
  %53 = icmp eq i32 %52, 64
  %54 = select i1 %53, i32 284, i32 281
  %55 = load ptr, ptr %9, align 8, !tbaa !41
  %56 = getelementptr inbounds nuw %"struct.Luau::AstNameTable::Entry", ptr %55, i32 0, i32 2
  store i32 %54, ptr %56, align 4, !tbaa !55
  %57 = load ptr, ptr %9, align 8, !tbaa !41
  %58 = getelementptr inbounds nuw %"struct.Luau::AstNameTable::Entry", ptr %57, i32 0, i32 0
  %59 = load ptr, ptr %9, align 8, !tbaa !41
  %60 = getelementptr inbounds nuw %"struct.Luau::AstNameTable::Entry", ptr %59, i32 0, i32 2
  %61 = call { ptr, i32 } @_ZSt9make_pairIRKN4Luau7AstNameERKNS0_6Lexeme4TypeEESt4pairINSt25__strip_reference_wrapperINSt5decayIT_E4typeEE6__typeENS9_INSA_IT0_E4typeEE6__typeEEOSB_OSG_(ptr noundef nonnull align 8 dereferenceable(8) %58, ptr noundef nonnull align 4 dereferenceable(4) %60)
  store { ptr, i32 } %61, ptr %14, align 8
  call void @llvm.memcpy.p0.p0.i64(ptr align 8 %4, ptr align 8 %14, i64 12, i1 false)
  store i32 1, ptr %11, align 4
  call void @llvm.lifetime.end.p0(i64 8, ptr %12) #18
  br label %62

62:                                               ; preds = %34, %28
  call void @llvm.lifetime.end.p0(i64 8, ptr %9) #18
  call void @llvm.lifetime.end.p0(i64 16, ptr %8) #18
  %63 = load { ptr, i32 }, ptr %4, align 8
  ret { ptr, i32 } %63
}