; Function Attrs: mustprogress uwtable
define dso_local { ptr, i32 } @_ZN4Luau12AstNameTable16getOrAddWithTypeEPKcm(ptr noundef nonnull align 8 dereferenceable(56) %0, ptr noundef %1, i64 noundef %2) local_unnamed_addr #5 align 2 {
  %4 = alloca %"struct.Luau::AstNameTable::Entry", align 8
  call void @llvm.lifetime.start.p0(i64 16, ptr nonnull %4) #24
  store ptr %1, ptr %4, align 8, !tbaa !42
  %5 = getelementptr inbounds nuw i8, ptr %4, i64 8
  %6 = trunc i64 %2 to i32
  store i32 %6, ptr %5, align 8, !tbaa !26
  %7 = getelementptr inbounds nuw i8, ptr %4, i64 12
  store i32 0, ptr %7, align 4, !tbaa !43
  %8 = call noundef nonnull align 8 dereferenceable(16) ptr @_ZN4Luau12DenseHashSetINS_12AstNameTable5EntryENS1_9EntryHashESt8equal_toIS2_EE6insertERKS2_(ptr noundef nonnull align 8 dereferenceable(48) %0, ptr noundef nonnull align 8 dereferenceable(16) %4)
  %9 = getelementptr inbounds nuw i8, ptr %8, i64 12
  %10 = load i32, ptr %9, align 4, !tbaa !43
  %.not = icmp eq i32 %10, 0
  br i1 %.not, label %14, label %11

11:                                               ; preds = %3
  %12 = load i64, ptr %8, align 8, !tbaa !25
  %13 = inttoptr i64 %12 to ptr
  br label %24

14:                                               ; preds = %3
  %15 = getelementptr inbounds nuw i8, ptr %0, i64 48
  %16 = load ptr, ptr %15, align 8, !tbaa !47
  %17 = add i64 %2, 1
  %18 = call noundef ptr @_ZN4Luau9Allocator8allocateEm(ptr noundef nonnull align 8 dereferenceable(16) %16, i64 noundef %17)
  call void @llvm.memcpy.p0.p0.i64(ptr align 1 %18, ptr align 1 %1, i64 %2, i1 false)
  %19 = getelementptr inbounds nuw i8, ptr %18, i64 %2
  store i8 0, ptr %19, align 1, !tbaa !15
  %20 = ptrtoint ptr %18 to i64
  store i64 %20, ptr %8, align 8, !tbaa !25
  %21 = load i8, ptr %1, align 1, !tbaa !15
  %22 = icmp eq i8 %21, 64
  %23 = select i1 %22, i32 284, i32 281
  store i32 %23, ptr %9, align 4, !tbaa !43
  br label %24

24:                                               ; preds = %14, %11
  %.pn27 = phi ptr [ %13, %11 ], [ %18, %14 ]
  %.pn25 = phi i32 [ %10, %11 ], [ %23, %14 ]
  %.fca.0.insert.i.pn = insertvalue { ptr, i32 } poison, ptr %.pn27, 0
  %.pn = insertvalue { ptr, i32 } %.fca.0.insert.i.pn, i32 %.pn25, 1
  call void @llvm.lifetime.end.p0(i64 16, ptr nonnull %4) #24
  ret { ptr, i32 } %.pn
}